target datalayout = "e-m:e-p270:32:32-p271:32:32-p272:64:64-i64:64-i128:128-f80:128-n8:16:32:64-S128"
target triple = "x86_64-pc-linux-gnu"

%struct.string_list = type { ptr, i64, i64, i8, ptr }
%struct.string_list_item = type { ptr, ptr }

; Function Attrs: nounwind uwtable
define dso_local void @filter_string_list(ptr noundef %0, i32 noundef %1, ptr noundef %2, ptr noundef %3) #0 {
  %5 = alloca ptr, align 8
  %6 = alloca i32, align 4
  %7 = alloca ptr, align 8
  %8 = alloca ptr, align 8
  %9 = alloca i32, align 4
  %10 = alloca i32, align 4
  store ptr %0, ptr %5, align 8, !tbaa !4
  store i32 %1, ptr %6, align 4, !tbaa !11
  store ptr %2, ptr %7, align 8, !tbaa !25
  store ptr %3, ptr %8, align 8, !tbaa !25
  call void @llvm.lifetime.start.p0(i64 4, ptr %9) #9
  call void @llvm.lifetime.start.p0(i64 4, ptr %10) #9
  store i32 0, ptr %10, align 4, !tbaa !11
  store i32 0, ptr %9, align 4, !tbaa !11
  br label %11

11:                                               ; preds = %73, %4
  %12 = load i32, ptr %9, align 4, !tbaa !11
  %13 = sext i32 %12 to i64
  %14 = load ptr, ptr %5, align 8, !tbaa !4
  %15 = getelementptr inbounds nuw %struct.string_list, ptr %14, i32 0, i32 1
  %16 = load i64, ptr %15, align 8, !tbaa !17
  %17 = icmp ult i64 %13, %16
  br i1 %17, label %18, label %76

18:                                               ; preds = %11
  %19 = load ptr, ptr %7, align 8, !tbaa !25
  %20 = load ptr, ptr %5, align 8, !tbaa !4
  %21 = getelementptr inbounds nuw %struct.string_list, ptr %20, i32 0, i32 0
  %22 = load ptr, ptr %21, align 8, !tbaa !13
  %23 = load i32, ptr %9, align 4, !tbaa !11
  %24 = sext i32 %23 to i64
  %25 = getelementptr inbounds %struct.string_list_item, ptr %22, i64 %24
  %26 = load ptr, ptr %8, align 8, !tbaa !25
  %27 = call i32 %19(ptr noundef %25, ptr noundef %26)
  %28 = icmp ne i32 %27, 0
  br i1 %28, label %29, label %43

29:                                               ; preds = %18
  %30 = load ptr, ptr %5, align 8, !tbaa !4
  %31 = getelementptr inbounds nuw %struct.string_list, ptr %30, i32 0, i32 0
  %32 = load ptr, ptr %31, align 8, !tbaa !13
  %33 = load i32, ptr %10, align 4, !tbaa !11
  %34 = add nsw i32 %33, 1
  store i32 %34, ptr %10, align 4, !tbaa !11
  %35 = sext i32 %33 to i64
  %36 = getelementptr inbounds %struct.string_list_item, ptr %32, i64 %35
  %37 = load ptr, ptr %5, align 8, !tbaa !4
  %38 = getelementptr inbounds nuw %struct.string_list, ptr %37, i32 0, i32 0
  %39 = load ptr, ptr %38, align 8, !tbaa !13
  %40 = load i32, ptr %9, align 4, !tbaa !11
  %41 = sext i32 %40 to i64
  %42 = getelementptr inbounds %struct.string_list_item, ptr %39, i64 %41
  call void @llvm.memcpy.p0.p0.i64(ptr align 8 %36, ptr align 8 %42, i64 16, i1 false), !tbaa.struct !29
  br label %72

43:                                               ; preds = %18
  %44 = load ptr, ptr %5, align 8, !tbaa !4
  %45 = getelementptr inbounds nuw %struct.string_list, ptr %44, i32 0, i32 3
  %46 = load i8, ptr %45, align 8
  %47 = and i8 %46, 1
  %48 = zext i8 %47 to i32
  %49 = icmp ne i32 %48, 0
  br i1 %49, label %50, label %59

50:                                               ; preds = %43
  %51 = load ptr, ptr %5, align 8, !tbaa !4
  %52 = getelementptr inbounds nuw %struct.string_list, ptr %51, i32 0, i32 0
  %53 = load ptr, ptr %52, align 8, !tbaa !13
  %54 = load i32, ptr %9, align 4, !tbaa !11
  %55 = sext i32 %54 to i64
  %56 = getelementptr inbounds %struct.string_list_item, ptr %53, i64 %55
  %57 = getelementptr inbounds nuw %struct.string_list_item, ptr %56, i32 0, i32 0
  %58 = load ptr, ptr %57, align 8, !tbaa !19
  call void @free(ptr noundef %58) #9
  br label %59

59:                                               ; preds = %50, %43
  %60 = load i32, ptr %6, align 4, !tbaa !11
  %61 = icmp ne i32 %60, 0
  br i1 %61, label %62, label %71

62:                                               ; preds = %59
  %63 = load ptr, ptr %5, align 8, !tbaa !4
  %64 = getelementptr inbounds nuw %struct.string_list, ptr %63, i32 0, i32 0
  %65 = load ptr, ptr %64, align 8, !tbaa !13
  %66 = load i32, ptr %9, align 4, !tbaa !11
  %67 = sext i32 %66 to i64
  %68 = getelementptr inbounds %struct.string_list_item, ptr %65, i64 %67
  %69 = getelementptr inbounds nuw %struct.string_list_item, ptr %68, i32 0, i32 1
  %70 = load ptr, ptr %69, align 8, !tbaa !21
  call void @free(ptr noundef %70) #9
  br label %71

71:                                               ; preds = %62, %59
  br label %72

72:                                               ; preds = %71, %29
  br label %73

73:                                               ; preds = %72
  %74 = load i32, ptr %9, align 4, !tbaa !11
  %75 = add nsw i32 %74, 1
  store i32 %75, ptr %9, align 4, !tbaa !11
  br label %11, !llvm.loop !32

76:                                               ; preds = %11
  %77 = load i32, ptr %10, align 4, !tbaa !11
  %78 = sext i32 %77 to i64
  %79 = load ptr, ptr %5, align 8, !tbaa !4
  %80 = getelementptr inbounds nuw %struct.string_list, ptr %79, i32 0, i32 1
  store i64 %78, ptr %80, align 8, !tbaa !17
  call void @llvm.lifetime.end.p0(i64 4, ptr %10) #9
  call void @llvm.lifetime.end.p0(i64 4, ptr %9) #9
  ret void
}

; Function Attrs: nounwind uwtable
define dso_local void @string_list_remove_empty_items(ptr noundef %0, i32 noundef %1) #0 {
  %3 = alloca ptr, align 8
  %4 = alloca i32, align 4
  store ptr %0, ptr %3, align 8, !tbaa !4
  store i32 %1, ptr %4, align 4, !tbaa !11
  %5 = load ptr, ptr %3, align 8, !tbaa !4
  %6 = load i32, ptr %4, align 4, !tbaa !11
  call void @filter_string_list(ptr noundef %5, i32 noundef %6, ptr noundef @item_is_not_empty, ptr noundef null)
  ret void
}