; Function Attrs: nounwind uwtable
define dso_local void @string_list_remove_empty_items(ptr noundef captures(none) %0, i32 noundef %1) local_unnamed_addr #4 {
  %3 = getelementptr inbounds nuw i8, ptr %0, i64 8
  %4 = load i64, ptr %3, align 8, !tbaa !4
  %.not24.i = icmp eq i64 %4, 0
  br i1 %.not24.i, label %filter_string_list.exit, label %.lr.ph.i

.lr.ph.i:                                         ; preds = %2
  %5 = getelementptr inbounds nuw i8, ptr %0, i64 24
  %.not21.i = icmp eq i32 %1, 0
  br i1 %.not21.i, label %.lr.ph.split.us.i, label %.lr.ph.split.i

.lr.ph.split.us.i:                                ; preds = %.lr.ph.i, %18
  %indvars.iv27.i = phi i64 [ %indvars.iv.next28.i, %18 ], [ 0, %.lr.ph.i ]
  %.023.us.i = phi i32 [ %.1.us.i, %18 ], [ 0, %.lr.ph.i ]
  %6 = load ptr, ptr %0, align 8, !tbaa !13
  %7 = getelementptr inbounds nuw %struct.string_list_item, ptr %6, i64 %indvars.iv27.i
  %8 = load ptr, ptr %7, align 8, !tbaa !14
  %9 = load i8, ptr %8, align 1, !tbaa !27
  %.not1 = icmp eq i8 %9, 0
  br i1 %.not1, label %14, label %10

10:                                               ; preds = %.lr.ph.split.us.i
  %11 = add nsw i32 %.023.us.i, 1
  %12 = sext i32 %.023.us.i to i64
  %13 = getelementptr inbounds %struct.string_list_item, ptr %6, i64 %12
  tail call void @llvm.memcpy.p0.p0.i64(ptr noundef nonnull align 8 dereferenceable(16) %13, ptr noundef nonnull align 8 dereferenceable(16) %7, i64 16, i1 false), !tbaa.struct !21
  br label %18

14:                                               ; preds = %.lr.ph.split.us.i
  %15 = load i8, ptr %5, align 8
  %16 = and i8 %15, 1
  %.not20.us.i = icmp eq i8 %16, 0
  br i1 %.not20.us.i, label %18, label %17

17:                                               ; preds = %14
  tail call void @free(ptr noundef nonnull %8) #11
  br label %18

18:                                               ; preds = %17, %14, %10
  %.1.us.i = phi i32 [ %11, %10 ], [ %.023.us.i, %17 ], [ %.023.us.i, %14 ]
  %indvars.iv.next28.i = add nuw nsw i64 %indvars.iv27.i, 1
  %19 = load i64, ptr %3, align 8, !tbaa !4
  %20 = icmp ugt i64 %19, %indvars.iv.next28.i
  br i1 %20, label %.lr.ph.split.us.i, label %filter_string_list.exit, !llvm.loop !26

.lr.ph.split.i:                                   ; preds = %.lr.ph.i, %37
  %indvars.iv.i = phi i64 [ %indvars.iv.next.i, %37 ], [ 0, %.lr.ph.i ]
  %.023.i = phi i32 [ %.1.i, %37 ], [ 0, %.lr.ph.i ]
  %21 = load ptr, ptr %0, align 8, !tbaa !13
  %22 = getelementptr inbounds nuw %struct.string_list_item, ptr %21, i64 %indvars.iv.i
  %23 = load ptr, ptr %22, align 8, !tbaa !14
  %24 = load i8, ptr %23, align 1, !tbaa !27
  %.not = icmp eq i8 %24, 0
  br i1 %.not, label %29, label %25

25:                                               ; preds = %.lr.ph.split.i
  %26 = add nsw i32 %.023.i, 1
  %27 = sext i32 %.023.i to i64
  %28 = getelementptr inbounds %struct.string_list_item, ptr %21, i64 %27
  tail call void @llvm.memcpy.p0.p0.i64(ptr noundef nonnull align 8 dereferenceable(16) %28, ptr noundef nonnull align 8 dereferenceable(16) %22, i64 16, i1 false), !tbaa.struct !21
  br label %37

29:                                               ; preds = %.lr.ph.split.i
  %30 = load i8, ptr %5, align 8
  %31 = and i8 %30, 1
  %.not20.i = icmp eq i8 %31, 0
  br i1 %.not20.i, label %33, label %32

32:                                               ; preds = %29
  tail call void @free(ptr noundef nonnull %23) #11
  %.pre = load ptr, ptr %0, align 8, !tbaa !13
  br label %33

33:                                               ; preds = %32, %29
  %34 = phi ptr [ %.pre, %32 ], [ %21, %29 ]
  %35 = getelementptr inbounds nuw %struct.string_list_item, ptr %34, i64 %indvars.iv.i, i32 1
  %36 = load ptr, ptr %35, align 8, !tbaa !20
  tail call void @free(ptr noundef %36) #11
  br label %37

37:                                               ; preds = %33, %25
  %.1.i = phi i32 [ %26, %25 ], [ %.023.i, %33 ]
  %indvars.iv.next.i = add nuw nsw i64 %indvars.iv.i, 1
  %38 = load i64, ptr %3, align 8, !tbaa !4
  %39 = icmp ugt i64 %38, %indvars.iv.next.i
  br i1 %39, label %.lr.ph.split.i, label %filter_string_list.exit, !llvm.loop !26

filter_string_list.exit:                          ; preds = %37, %18, %2
  %.0.lcssa.i = phi i32 [ 0, %2 ], [ %.1.us.i, %18 ], [ %.1.i, %37 ]
  %40 = sext i32 %.0.lcssa.i to i64
  store i64 %40, ptr %3, align 8, !tbaa !4
  ret void
}